target datalayout = "e-m:e-p270:32:32-p271:32:32-p272:64:64-i64:64-i128:128-f80:128-n8:16:32:64-S128"
target triple = "x86_64-pc-linux-gnu"

%struct._proto_node = type { ptr, ptr, ptr, ptr, ptr, ptr, ptr }
%struct.field_info = type { ptr, i32, i32, i32, i32, i32, i32, ptr, ptr, ptr, i32, i32 }

@hf_rsl_ie_id = internal global i32 0, align 4
@hf_rsl_req_ref_ra = internal global i32 0, align 4
@hf_rsl_req_ref_ra_est_cause = internal global i32 0, align 4
@hf_rsl_req_ref_T1prim = internal global i32 0, align 4
@hf_rsl_req_ref_T3 = internal global i32 0, align 4
@hf_rsl_req_ref_T2 = internal global i32 0, align 4
@hf_rsl_req_ref_rfn = internal global i32 0, align 4
@ett_ie_req_ref = internal global i32 0, align 4
@ett_ie_req_ref_ra = internal global i32 0, align 4
@.str.766 = private unnamed_addr constant [22 x i8] c"Request Reference IE \00", align 1

; Function Attrs: inlinehint nounwind null_pointer_is_valid sspstrong uwtable
define internal void @proto_item_set_generated(ptr noundef %0) #5 {
  %2 = alloca ptr, align 8
  store ptr %0, ptr %2, align 8
  %3 = load ptr, ptr %2, align 8
  %4 = icmp ne ptr %3, null
  br i1 %4, label %5, label %24

5:                                                ; preds = %1
  br label %6

6:                                                ; preds = %5
  %7 = load ptr, ptr %2, align 8
  %8 = getelementptr inbounds nuw %struct._proto_node, ptr %7, i32 0, i32 5
  %9 = load ptr, ptr %8, align 8
  %10 = icmp ne ptr %9, null
  br i1 %10, label %11, label %22

11:                                               ; preds = %6
  %12 = load ptr, ptr %2, align 8
  %13 = getelementptr inbounds nuw %struct._proto_node, ptr %12, i32 0, i32 5
  %14 = load ptr, ptr %13, align 8
  %15 = getelementptr inbounds nuw %struct.field_info, ptr %14, i32 0, i32 6
  %16 = load i32, ptr %15, align 4
  %17 = or i32 %16, 2
  %18 = load ptr, ptr %2, align 8
  %19 = getelementptr inbounds nuw %struct._proto_node, ptr %18, i32 0, i32 5
  %20 = load ptr, ptr %19, align 8
  %21 = getelementptr inbounds nuw %struct.field_info, ptr %20, i32 0, i32 6
  store i32 %17, ptr %21, align 4
  br label %22

22:                                               ; preds = %11, %6
  br label %23

23:                                               ; preds = %22
  br label %24

24:                                               ; preds = %23, %1
  ret void
}

; Function Attrs: null_pointer_is_valid sspstrong uwtable
define internal i32 @dissect_rsl_ie_req_ref(ptr noundef %0, ptr noundef %1, ptr noundef %2, i32 noundef %3, i1 noundef zeroext %4) #0 {
  %6 = alloca i32, align 4
  %7 = alloca ptr, align 8
  %8 = alloca ptr, align 8
  %9 = alloca ptr, align 8
  %10 = alloca i32, align 4
  %11 = alloca i8, align 1
  %12 = alloca ptr, align 8
  %13 = alloca ptr, align 8
  %14 = alloca i8, align 1
  %15 = alloca i16, align 2
  %16 = alloca ptr, align 8
  %17 = alloca i32, align 4
  store ptr %0, ptr %7, align 8
  store ptr %1, ptr %8, align 8
  store ptr %2, ptr %9, align 8
  store i32 %3, ptr %10, align 4
  %18 = zext i1 %4 to i8
  store i8 %18, ptr %11, align 1
  call void @llvm.lifetime.start.p0(i64 8, ptr %12) #6
  call void @llvm.lifetime.start.p0(i64 8, ptr %13) #6
  call void @llvm.lifetime.start.p0(i64 1, ptr %14) #6
  call void @llvm.lifetime.start.p0(i64 2, ptr %15) #6
  call void @llvm.lifetime.start.p0(i64 8, ptr %16) #6
  %19 = load i8, ptr %11, align 1, !range !6, !noundef !7
  %20 = trunc i8 %19 to i1
  %21 = zext i1 %20 to i32
  %22 = icmp eq i32 %21, 0
  br i1 %22, label %23, label %33

23:                                               ; preds = %5
  %24 = load ptr, ptr %7, align 8
  %25 = load i32, ptr %10, align 4
  %26 = call zeroext i8 @tvb_get_uint8(ptr noundef %24, i32 noundef %25)
  store i8 %26, ptr %14, align 1
  %27 = load i8, ptr %14, align 1
  %28 = zext i8 %27 to i32
  %29 = icmp ne i32 %28, 19
  br i1 %29, label %30, label %32

30:                                               ; preds = %23
  %31 = load i32, ptr %10, align 4
  store i32 %31, ptr %6, align 4
  store i32 1, ptr %17, align 4
  br label %93

32:                                               ; preds = %23
  br label %33

33:                                               ; preds = %32, %5
  %34 = load ptr, ptr %9, align 8
  %35 = load ptr, ptr %7, align 8
  %36 = load i32, ptr %10, align 4
  %37 = load i32, ptr @ett_ie_req_ref, align 4
  %38 = call ptr @proto_tree_add_subtree(ptr noundef %34, ptr noundef %35, i32 noundef %36, i32 noundef 4, i32 noundef %37, ptr noundef null, ptr noundef @.str.766)
  store ptr %38, ptr %12, align 8
  %39 = load ptr, ptr %12, align 8
  %40 = load i32, ptr @hf_rsl_ie_id, align 4
  %41 = load ptr, ptr %7, align 8
  %42 = load i32, ptr %10, align 4
  %43 = call ptr @proto_tree_add_item(ptr noundef %39, i32 noundef %40, ptr noundef %41, i32 noundef %42, i32 noundef 1, i32 noundef 0)
  %44 = load i32, ptr %10, align 4
  %45 = add i32 %44, 1
  store i32 %45, ptr %10, align 4
  %46 = load ptr, ptr %12, align 8
  %47 = load i32, ptr @hf_rsl_req_ref_ra, align 4
  %48 = load ptr, ptr %7, align 8
  %49 = load i32, ptr %10, align 4
  %50 = call ptr @proto_tree_add_item(ptr noundef %46, i32 noundef %47, ptr noundef %48, i32 noundef %49, i32 noundef 1, i32 noundef 0)
  store ptr %50, ptr %16, align 8
  %51 = load ptr, ptr %16, align 8
  %52 = load i32, ptr @ett_ie_req_ref_ra, align 4
  %53 = call ptr @proto_item_add_subtree(ptr noundef %51, i32 noundef %52)
  store ptr %53, ptr %13, align 8
  %54 = load ptr, ptr %13, align 8
  %55 = load i32, ptr @hf_rsl_req_ref_ra_est_cause, align 4
  %56 = load ptr, ptr %7, align 8
  %57 = load i32, ptr %10, align 4
  %58 = call ptr @proto_tree_add_item(ptr noundef %54, i32 noundef %55, ptr noundef %56, i32 noundef %57, i32 noundef 1, i32 noundef 0)
  %59 = load i32, ptr %10, align 4
  %60 = add i32 %59, 1
  store i32 %60, ptr %10, align 4
  %61 = load ptr, ptr %7, align 8
  %62 = load i32, ptr %10, align 4
  %63 = call zeroext i16 @parse_reduced_frame_number(ptr noundef %61, i32 noundef %62)
  store i16 %63, ptr %15, align 2
  %64 = load ptr, ptr %12, align 8
  %65 = load i32, ptr @hf_rsl_req_ref_T1prim, align 4
  %66 = load ptr, ptr %7, align 8
  %67 = load i32, ptr %10, align 4
  %68 = call ptr @proto_tree_add_item(ptr noundef %64, i32 noundef %65, ptr noundef %66, i32 noundef %67, i32 noundef 1, i32 noundef 0)
  %69 = load ptr, ptr %12, align 8
  %70 = load i32, ptr @hf_rsl_req_ref_T3, align 4
  %71 = load ptr, ptr %7, align 8
  %72 = load i32, ptr %10, align 4
  %73 = call ptr @proto_tree_add_item(ptr noundef %69, i32 noundef %70, ptr noundef %71, i32 noundef %72, i32 noundef 2, i32 noundef 0)
  %74 = load i32, ptr %10, align 4
  %75 = add i32 %74, 1
  store i32 %75, ptr %10, align 4
  %76 = load ptr, ptr %12, align 8
  %77 = load i32, ptr @hf_rsl_req_ref_T2, align 4
  %78 = load ptr, ptr %7, align 8
  %79 = load i32, ptr %10, align 4
  %80 = call ptr @proto_tree_add_item(ptr noundef %76, i32 noundef %77, ptr noundef %78, i32 noundef %79, i32 noundef 1, i32 noundef 0)
  %81 = load i32, ptr %10, align 4
  %82 = add i32 %81, 1
  store i32 %82, ptr %10, align 4
  %83 = load ptr, ptr %12, align 8
  %84 = load i32, ptr @hf_rsl_req_ref_rfn, align 4
  %85 = load ptr, ptr %7, align 8
  %86 = load i32, ptr %10, align 4
  %87 = sub i32 %86, 2
  %88 = load i16, ptr %15, align 2
  %89 = zext i16 %88 to i32
  %90 = call ptr @proto_tree_add_uint(ptr noundef %83, i32 noundef %84, ptr noundef %85, i32 noundef %87, i32 noundef 2, i32 noundef %89)
  store ptr %90, ptr %16, align 8
  %91 = load ptr, ptr %16, align 8
  call void @proto_item_set_generated(ptr noundef %91)
  %92 = load i32, ptr %10, align 4
  store i32 %92, ptr %6, align 4
  store i32 1, ptr %17, align 4
  br label %93

93:                                               ; preds = %33, %30
  call void @llvm.lifetime.end.p0(i64 8, ptr %16) #6
  call void @llvm.lifetime.end.p0(i64 2, ptr %15) #6
  call void @llvm.lifetime.end.p0(i64 1, ptr %14) #6
  call void @llvm.lifetime.end.p0(i64 8, ptr %13) #6
  call void @llvm.lifetime.end.p0(i64 8, ptr %12) #6
  %94 = load i32, ptr %6, align 4
  ret i32 %94
}