; Function Attrs: null_pointer_is_valid sspstrong uwtable
define internal fastcc noundef i32 @dissect_rsl_ie_req_ref(ptr noundef %0, ptr noundef %1, i32 noundef %2) unnamed_addr #0 {
  %4 = load i32, ptr @ett_ie_req_ref, align 4
  %5 = tail call ptr @proto_tree_add_subtree(ptr noundef %1, ptr noundef %0, i32 noundef %2, i32 noundef 4, i32 noundef %4, ptr noundef null, ptr noundef nonnull @.str.766)
  %6 = load i32, ptr @hf_rsl_ie_id, align 4
  %7 = tail call ptr @proto_tree_add_item(ptr noundef %5, i32 noundef %6, ptr noundef %0, i32 noundef %2, i32 noundef 1, i32 noundef 0)
  %8 = add i32 %2, 1
  %9 = load i32, ptr @hf_rsl_req_ref_ra, align 4
  %10 = tail call ptr @proto_tree_add_item(ptr noundef %5, i32 noundef %9, ptr noundef %0, i32 noundef %8, i32 noundef 1, i32 noundef 0)
  %11 = load i32, ptr @ett_ie_req_ref_ra, align 4
  %12 = tail call ptr @proto_item_add_subtree(ptr noundef %10, i32 noundef %11)
  %13 = load i32, ptr @hf_rsl_req_ref_ra_est_cause, align 4
  %14 = tail call ptr @proto_tree_add_item(ptr noundef %12, i32 noundef %13, ptr noundef %0, i32 noundef %8, i32 noundef 1, i32 noundef 0)
  %15 = add i32 %2, 2
  %16 = tail call zeroext i16 @parse_reduced_frame_number(ptr noundef %0, i32 noundef %15)
  %17 = load i32, ptr @hf_rsl_req_ref_T1prim, align 4
  %18 = tail call ptr @proto_tree_add_item(ptr noundef %5, i32 noundef %17, ptr noundef %0, i32 noundef %15, i32 noundef 1, i32 noundef 0)
  %19 = load i32, ptr @hf_rsl_req_ref_T3, align 4
  %20 = tail call ptr @proto_tree_add_item(ptr noundef %5, i32 noundef %19, ptr noundef %0, i32 noundef %15, i32 noundef 2, i32 noundef 0)
  %21 = add i32 %2, 3
  %22 = load i32, ptr @hf_rsl_req_ref_T2, align 4
  %23 = tail call ptr @proto_tree_add_item(ptr noundef %5, i32 noundef %22, ptr noundef %0, i32 noundef %21, i32 noundef 1, i32 noundef 0)
  %24 = load i32, ptr @hf_rsl_req_ref_rfn, align 4
  %25 = zext i16 %16 to i32
  %26 = tail call ptr @proto_tree_add_uint(ptr noundef %5, i32 noundef %24, ptr noundef %0, i32 noundef %15, i32 noundef 2, i32 noundef %25)
  %.not.i = icmp eq ptr %26, null
  br i1 %.not.i, label %proto_item_set_generated.exit, label %27

27:                                               ; preds = %3
  %28 = getelementptr inbounds nuw i8, ptr %26, i64 40
  %29 = load ptr, ptr %28, align 8
  %.not5.i = icmp eq ptr %29, null
  br i1 %.not5.i, label %proto_item_set_generated.exit, label %30

30:                                               ; preds = %27
  %31 = getelementptr inbounds nuw i8, ptr %29, i64 28
  %32 = load i32, ptr %31, align 4
  %33 = or i32 %32, 2
  store i32 %33, ptr %31, align 4
  br label %proto_item_set_generated.exit

proto_item_set_generated.exit:                    ; preds = %3, %27, %30
  %34 = add i32 %2, 4
  ret i32 %34
}